; ModuleID = '13/96.c'
source_filename = "13/96.c"
target datalayout = "e-m:e-p270:32:32-p271:32:32-p272:64:64-i64:64-f80:128-n8:16:32:64-S128"
target triple = "x86_64-pc-linux-gnu"

@.str = private unnamed_addr constant [3 x i8] c"%d\00", align 1
@.str.1 = private unnamed_addr constant [4 x i8] c"%d \00", align 1

; Function Attrs: noinline nounwind uwtable
define dso_local i32 @main() #0 {
  %1 = alloca i32, align 4
  %2 = alloca i32, align 4
  %3 = alloca i32, align 4
  %4 = alloca i32, align 4
  %5 = alloca [20000 x i32], align 16
  %6 = alloca [91 x i32], align 16
  %7 = alloca i32, align 4
  store i32 0, i32* %1, align 4
  store i32 0, i32* %7, align 4
  %8 = call i32 (i8*, ...) @__isoc99_scanf(i8* getelementptr inbounds ([3 x i8], [3 x i8]* @.str, i64 0, i64 0), i32* %2)
  store i32 0, i32* %3, align 4
  br label %9

9:                                                ; preds = %18, %0
  %10 = load i32, i32* %3, align 4
  %11 = load i32, i32* %2, align 4
  %12 = icmp slt i32 %10, %11
  br i1 %12, label %13, label %21

13:                                               ; preds = %9
  %14 = load i32, i32* %3, align 4
  %15 = sext i32 %14 to i64
  %16 = getelementptr inbounds [20000 x i32], [20000 x i32]* %5, i64 0, i64 %15
  %17 = call i32 (i8*, ...) @__isoc99_scanf(i8* getelementptr inbounds ([3 x i8], [3 x i8]* @.str, i64 0, i64 0), i32* %16)
  br label %18

18:                                               ; preds = %13
  %19 = load i32, i32* %3, align 4
  %20 = add nsw i32 %19, 1
  store i32 %20, i32* %3, align 4
  br label %9

21:                                               ; preds = %9
  store i32 0, i32* %3, align 4
  br label %22

22:                                               ; preds = %60, %21
  %23 = load i32, i32* %3, align 4
  %24 = load i32, i32* %2, align 4
  %25 = icmp slt i32 %23, %24
  br i1 %25, label %26, label %63

26:                                               ; preds = %22
  store i32 0, i32* %4, align 4
  br label %27

27:                                               ; preds = %43, %26
  %28 = load i32, i32* %4, align 4
  %29 = load i32, i32* %3, align 4
  %30 = icmp slt i32 %28, %29
  br i1 %30, label %31, label %46

31:                                               ; preds = %27
  %32 = load i32, i32* %4, align 4
  %33 = sext i32 %32 to i64
  %34 = getelementptr inbounds [20000 x i32], [20000 x i32]* %5, i64 0, i64 %33
  %35 = load i32, i32* %34, align 4
  %36 = load i32, i32* %3, align 4
  %37 = sext i32 %36 to i64
  %38 = getelementptr inbounds [20000 x i32], [20000 x i32]* %5, i64 0, i64 %37
  %39 = load i32, i32* %38, align 4
  %40 = icmp eq i32 %35, %39
  br i1 %40, label %41, label %42

41:                                               ; preds = %31
  br label %46

42:                                               ; preds = %31
  br label %43

43:                                               ; preds = %42
  %44 = load i32, i32* %4, align 4
  %45 = add nsw i32 %44, 1
  store i32 %45, i32* %4, align 4
  br label %27

46:                                               ; preds = %41, %27
  %47 = load i32, i32* %4, align 4
  %48 = load i32, i32* %3, align 4
  %49 = icmp eq i32 %47, %48
  br i1 %49, label %50, label %59

50:                                               ; preds = %46
  %51 = load i32, i32* %3, align 4
  %52 = sext i32 %51 to i64
  %53 = getelementptr inbounds [20000 x i32], [20000 x i32]* %5, i64 0, i64 %52
  %54 = load i32, i32* %53, align 4
  %55 = load i32, i32* %7, align 4
  %56 = add nsw i32 %55, 1
  store i32 %56, i32* %7, align 4
  %57 = sext i32 %56 to i64
  %58 = getelementptr inbounds [91 x i32], [91 x i32]* %6, i64 0, i64 %57
  store i32 %54, i32* %58, align 4
  br label %59

59:                                               ; preds = %50, %46
  br label %60

60:                                               ; preds = %59
  %61 = load i32, i32* %3, align 4
  %62 = add nsw i32 %61, 1
  store i32 %62, i32* %3, align 4
  br label %22

63:                                               ; preds = %22
  store i32 1, i32* %3, align 4
  br label %64

64:                                               ; preds = %74, %63
  %65 = load i32, i32* %3, align 4
  %66 = load i32, i32* %7, align 4
  %67 = icmp slt i32 %65, %66
  br i1 %67, label %68, label %77

68:                                               ; preds = %64
  %69 = load i32, i32* %3, align 4
  %70 = sext i32 %69 to i64
  %71 = getelementptr inbounds [91 x i32], [91 x i32]* %6, i64 0, i64 %70
  %72 = load i32, i32* %71, align 4
  %73 = call i32 (i8*, ...) @printf(i8* getelementptr inbounds ([4 x i8], [4 x i8]* @.str.1, i64 0, i64 0), i32 %72)
  br label %74

74:                                               ; preds = %68
  %75 = load i32, i32* %3, align 4
  %76 = add nsw i32 %75, 1
  store i32 %76, i32* %3, align 4
  br label %64

77:                                               ; preds = %64
  %78 = load i32, i32* %7, align 4
  %79 = sext i32 %78 to i64
  %80 = getelementptr inbounds [91 x i32], [91 x i32]* %6, i64 0, i64 %79
  %81 = load i32, i32* %80, align 4
  %82 = call i32 (i8*, ...) @printf(i8* getelementptr inbounds ([3 x i8], [3 x i8]* @.str, i64 0, i64 0), i32 %81)
  %83 = load i32, i32* %1, align 4
  ret i32 %83
}

declare dso_local i32 @__isoc99_scanf(i8*, ...) #1

declare dso_local i32 @printf(i8*, ...) #1


!llvm.module.flags = !{!0}
!llvm.ident = !{!1}

!0 = !{i32 1, !"wchar_size", i32 4}
!1 = !{!"clang version 10.0.0-4ubuntu1 "}
